target datalayout = "e-m:e-p270:32:32-p271:32:32-p272:64:64-i64:64-i128:128-f80:128-n8:16:32:64-S128"
target triple = "x86_64-pc-linux-gnu"

%struct.AVChannelLayout = type { i32, i32, %union.anon.0, ptr }
%union.anon.0 = type { i64 }
%struct.AVCodecContext = type { ptr, i32, i32, ptr, i32, i32, ptr, ptr, ptr, i64, i32, i32, ptr, i32, %struct.AVRational, %struct.AVRational, %struct.AVRational, i32, i32, i32, i32, i32, %struct.AVRational, i32, i32, i32, i32, i32, i32, i32, i32, i32, i32, i32, ptr, ptr, i32, float, float, float, float, float, float, float, float, float, i32, i32, i32, i32, i32, i32, i32, i32, i32, i32, i32, i32, ptr, ptr, ptr, i32, i32, i32, i32, i32, i32, i32, i32, i32, i32, %struct.AVChannelLayout, i32, i32, i32, i32, i32, i32, i32, i32, ptr, i32, i32, i32, float, float, i32, i32, i32, i32, i32, ptr, i64, i64, float, float, i32, i32, ptr, ptr, i32, i32, i32, i32, i32, ptr, ptr, ptr, ptr, i32, i32, [8 x i64], i32, i32, i32, i32, i32, i32, i32, ptr, ptr, i32, i32, i32, i32, i32, i32, i32, i32, i32, i32, ptr, ptr, i32, i32, ptr, ptr, ptr, ptr, i32, i32, i64, i32, i32, i64, ptr, i64, ptr, i32, ptr, i32 }
%struct.AVRational = type { i32, i32 }
%struct.DVAudioContext = type { i32, i32, i32, [2000 x i16] }

; Function Attrs: cold nounwind optsize uwtable
define internal i32 @decode_init(ptr noundef %0) #0 {
  %2 = alloca i32, align 4
  %3 = alloca ptr, align 8
  %4 = alloca ptr, align 8
  %5 = alloca i32, align 4
  %6 = alloca i32, align 4
  %7 = alloca %struct.AVChannelLayout, align 8
  %8 = alloca i32, align 4
  %9 = alloca i32, align 4
  store ptr %0, ptr %3, align 8, !tbaa !4
  call void @llvm.lifetime.start.p0(i64 8, ptr %4) #7
  %10 = load ptr, ptr %3, align 8, !tbaa !4
  %11 = getelementptr inbounds nuw %struct.AVCodecContext, ptr %10, i32 0, i32 6
  %12 = load ptr, ptr %11, align 8, !tbaa !9
  store ptr %12, ptr %4, align 8, !tbaa !29
  call void @llvm.lifetime.start.p0(i64 4, ptr %5) #7
  %13 = load ptr, ptr %3, align 8, !tbaa !4
  %14 = getelementptr inbounds nuw %struct.AVCodecContext, ptr %13, i32 0, i32 5
  %15 = load i32, ptr %14, align 4, !tbaa !31
  %16 = icmp eq i32 %15, 533
  br i1 %16, label %17, label %20

17:                                               ; preds = %1
  %18 = load ptr, ptr %4, align 8, !tbaa !29
  %19 = getelementptr inbounds nuw %struct.DVAudioContext, ptr %18, i32 0, i32 0
  store i32 7200, ptr %19, align 4, !tbaa !32
  br label %47

20:                                               ; preds = %1
  %21 = load ptr, ptr %3, align 8, !tbaa !4
  %22 = getelementptr inbounds nuw %struct.AVCodecContext, ptr %21, i32 0, i32 5
  %23 = load i32, ptr %22, align 4, !tbaa !31
  %24 = icmp eq i32 %23, 534
  br i1 %24, label %25, label %28

25:                                               ; preds = %20
  %26 = load ptr, ptr %4, align 8, !tbaa !29
  %27 = getelementptr inbounds nuw %struct.DVAudioContext, ptr %26, i32 0, i32 0
  store i32 8640, ptr %27, align 4, !tbaa !32
  br label %46

28:                                               ; preds = %20
  %29 = load ptr, ptr %3, align 8, !tbaa !4
  %30 = getelementptr inbounds nuw %struct.AVCodecContext, ptr %29, i32 0, i32 73
  %31 = load i32, ptr %30, align 4, !tbaa !34
  %32 = icmp eq i32 %31, 7200
  br i1 %32, label %38, label %33

33:                                               ; preds = %28
  %34 = load ptr, ptr %3, align 8, !tbaa !4
  %35 = getelementptr inbounds nuw %struct.AVCodecContext, ptr %34, i32 0, i32 73
  %36 = load i32, ptr %35, align 4, !tbaa !34
  %37 = icmp eq i32 %36, 8640
  br i1 %37, label %38, label %44

38:                                               ; preds = %33, %28
  %39 = load ptr, ptr %3, align 8, !tbaa !4
  %40 = getelementptr inbounds nuw %struct.AVCodecContext, ptr %39, i32 0, i32 73
  %41 = load i32, ptr %40, align 4, !tbaa !34
  %42 = load ptr, ptr %4, align 8, !tbaa !29
  %43 = getelementptr inbounds nuw %struct.DVAudioContext, ptr %42, i32 0, i32 0
  store i32 %41, ptr %43, align 4, !tbaa !32
  br label %45

44:                                               ; preds = %33
  store i32 -22, ptr %2, align 4
  store i32 1, ptr %6, align 4
  br label %119

45:                                               ; preds = %38
  br label %46

46:                                               ; preds = %45, %25
  br label %47

47:                                               ; preds = %46, %17
  %48 = load ptr, ptr %4, align 8, !tbaa !29
  %49 = getelementptr inbounds nuw %struct.DVAudioContext, ptr %48, i32 0, i32 0
  %50 = load i32, ptr %49, align 4, !tbaa !32
  %51 = icmp eq i32 %50, 8640
  %52 = zext i1 %51 to i32
  %53 = load ptr, ptr %4, align 8, !tbaa !29
  %54 = getelementptr inbounds nuw %struct.DVAudioContext, ptr %53, i32 0, i32 2
  store i32 %52, ptr %54, align 4, !tbaa !35
  %55 = load ptr, ptr %3, align 8, !tbaa !4
  %56 = getelementptr inbounds nuw %struct.AVCodecContext, ptr %55, i32 0, i32 114
  %57 = load i32, ptr %56, align 8, !tbaa !36
  %58 = icmp eq i32 %57, 12
  %59 = zext i1 %58 to i32
  %60 = load ptr, ptr %4, align 8, !tbaa !29
  %61 = getelementptr inbounds nuw %struct.DVAudioContext, ptr %60, i32 0, i32 1
  store i32 %59, ptr %61, align 4, !tbaa !37
  %62 = load ptr, ptr %3, align 8, !tbaa !4
  %63 = getelementptr inbounds nuw %struct.AVCodecContext, ptr %62, i32 0, i32 70
  store i32 1, ptr %63, align 4, !tbaa !38
  %64 = load ptr, ptr %3, align 8, !tbaa !4
  %65 = getelementptr inbounds nuw %struct.AVCodecContext, ptr %64, i32 0, i32 71
  call void @av_channel_layout_uninit(ptr noundef %65)
  %66 = load ptr, ptr %3, align 8, !tbaa !4
  %67 = getelementptr inbounds nuw %struct.AVCodecContext, ptr %66, i32 0, i32 71
  %68 = getelementptr inbounds nuw %struct.AVChannelLayout, ptr %7, i32 0, i32 0
  store i32 1, ptr %68, align 8, !tbaa !39
  %69 = getelementptr inbounds nuw %struct.AVChannelLayout, ptr %7, i32 0, i32 1
  store i32 2, ptr %69, align 4, !tbaa !40
  %70 = getelementptr inbounds nuw %struct.AVChannelLayout, ptr %7, i32 0, i32 2
  store i64 3, ptr %70, align 8, !tbaa !41
  %71 = getelementptr inbounds nuw %struct.AVChannelLayout, ptr %7, i32 0, i32 3
  store ptr null, ptr %71, align 8, !tbaa !42
  call void @llvm.memcpy.p0.p0.i64(ptr align 8 %67, ptr align 8 %7, i64 24, i1 false), !tbaa.struct !43
  store i32 0, ptr %5, align 4, !tbaa !44
  br label %72

72:                                               ; preds = %115, %47
  %73 = load i32, ptr %5, align 4, !tbaa !44
  %74 = sext i32 %73 to i64
  %75 = icmp ult i64 %74, 2000
  br i1 %75, label %76, label %118

76:                                               ; preds = %72
  call void @llvm.lifetime.start.p0(i64 4, ptr %8) #7
  %77 = load ptr, ptr %4, align 8, !tbaa !29
  %78 = getelementptr inbounds nuw %struct.DVAudioContext, ptr %77, i32 0, i32 2
  %79 = load i32, ptr %78, align 4, !tbaa !35
  %80 = icmp ne i32 %79, 0
  %81 = select i1 %80, i32 18, i32 15
  store i32 %81, ptr %8, align 4, !tbaa !44
  call void @llvm.lifetime.start.p0(i64 4, ptr %9) #7
  %82 = load i32, ptr %8, align 4, !tbaa !44
  %83 = mul i32 3, %82
  store i32 %83, ptr %9, align 4, !tbaa !44
  %84 = load i32, ptr %5, align 4, !tbaa !44
  %85 = srem i32 %84, 3
  %86 = mul nsw i32 21, %85
  %87 = load i32, ptr %5, align 4, !tbaa !44
  %88 = sdiv i32 %87, 3
  %89 = mul nsw i32 9, %88
  %90 = add nsw i32 %86, %89
  %91 = load i32, ptr %5, align 4, !tbaa !44
  %92 = load i32, ptr %8, align 4, !tbaa !44
  %93 = udiv i32 %91, %92
  %94 = urem i32 %93, 3
  %95 = add i32 %90, %94
  %96 = load i32, ptr %9, align 4, !tbaa !44
  %97 = urem i32 %95, %96
  %98 = mul i32 80, %97
  %99 = load ptr, ptr %4, align 8, !tbaa !29
  %100 = getelementptr inbounds nuw %struct.DVAudioContext, ptr %99, i32 0, i32 1
  %101 = load i32, ptr %100, align 4, !tbaa !37
  %102 = add nsw i32 2, %101
  %103 = load i32, ptr %5, align 4, !tbaa !44
  %104 = load i32, ptr %9, align 4, !tbaa !44
  %105 = udiv i32 %103, %104
  %106 = mul i32 %102, %105
  %107 = add i32 %98, %106
  %108 = add i32 %107, 8
  %109 = trunc i32 %108 to i16
  %110 = load ptr, ptr %4, align 8, !tbaa !29
  %111 = getelementptr inbounds nuw %struct.DVAudioContext, ptr %110, i32 0, i32 3
  %112 = load i32, ptr %5, align 4, !tbaa !44
  %113 = sext i32 %112 to i64
  %114 = getelementptr inbounds [2000 x i16], ptr %111, i64 0, i64 %113
  store i16 %109, ptr %114, align 2, !tbaa !46
  call void @llvm.lifetime.end.p0(i64 4, ptr %9) #7
  call void @llvm.lifetime.end.p0(i64 4, ptr %8) #7
  br label %115

115:                                              ; preds = %76
  %116 = load i32, ptr %5, align 4, !tbaa !44
  %117 = add nsw i32 %116, 1
  store i32 %117, ptr %5, align 4, !tbaa !44
  br label %72, !llvm.loop !48

118:                                              ; preds = %72
  store i32 0, ptr %2, align 4
  store i32 1, ptr %6, align 4
  br label %119

119:                                              ; preds = %118, %44
  call void @llvm.lifetime.end.p0(i64 4, ptr %5) #7
  call void @llvm.lifetime.end.p0(i64 8, ptr %4) #7
  %120 = load i32, ptr %2, align 4
  ret i32 %120
}