; Function Attrs: cold nounwind optsize uwtable
define internal range(i32 -22, 1) i32 @decode_init(ptr noundef %0) #0 {
  %2 = getelementptr inbounds nuw i8, ptr %0, i64 32
  %3 = load ptr, ptr %2, align 8, !tbaa !4
  %4 = getelementptr inbounds nuw i8, ptr %0, i64 28
  %5 = load i32, ptr %4, align 4, !tbaa !27
  switch i32 %5, label %8 [
    i32 533, label %6
    i32 534, label %7
  ]

6:                                                ; preds = %1
  store i32 7200, ptr %3, align 4, !tbaa !28
  br label %14

7:                                                ; preds = %1
  store i32 8640, ptr %3, align 4, !tbaa !28
  br label %14

8:                                                ; preds = %1
  %9 = getelementptr inbounds nuw i8, ptr %0, i64 380
  %10 = load i32, ptr %9, align 4, !tbaa !30
  switch i32 %10, label %.loopexit [
    i32 7200, label %11
    i32 8640, label %11
  ]

11:                                               ; preds = %8, %8
  store i32 %10, ptr %3, align 4, !tbaa !28
  %12 = icmp eq i32 %10, 8640
  %13 = zext i1 %12 to i32
  br label %14

14:                                               ; preds = %7, %11, %6
  %15 = phi i32 [ 1, %7 ], [ %13, %11 ], [ 0, %6 ]
  %16 = getelementptr inbounds nuw i8, ptr %3, i64 8
  store i32 %15, ptr %16, align 4, !tbaa !31
  %17 = getelementptr inbounds nuw i8, ptr %0, i64 648
  %18 = load i32, ptr %17, align 8, !tbaa !32
  %19 = icmp eq i32 %18, 12
  %20 = zext i1 %19 to i32
  %21 = getelementptr inbounds nuw i8, ptr %3, i64 4
  store i32 %20, ptr %21, align 4, !tbaa !33
  %22 = getelementptr inbounds nuw i8, ptr %0, i64 348
  store i32 1, ptr %22, align 4, !tbaa !34
  %23 = getelementptr inbounds nuw i8, ptr %0, i64 352
  tail call void @av_channel_layout_uninit(ptr noundef nonnull %23) #4
  store i32 1, ptr %23, align 8, !tbaa !35
  %.sroa.2.0..sroa_idx = getelementptr inbounds nuw i8, ptr %0, i64 356
  store i32 2, ptr %.sroa.2.0..sroa_idx, align 4, !tbaa !35
  %.sroa.3.0..sroa_idx = getelementptr inbounds nuw i8, ptr %0, i64 360
  store i64 3, ptr %.sroa.3.0..sroa_idx, align 8, !tbaa !36
  %.sroa.4.0..sroa_idx = getelementptr inbounds nuw i8, ptr %0, i64 368
  store ptr null, ptr %.sroa.4.0..sroa_idx, align 8, !tbaa !37
  %24 = load i32, ptr %16, align 4, !tbaa !31
  %.not = icmp eq i32 %24, 0
  %25 = select i1 %.not, i32 15, i32 18
  %.rhs.trunc = trunc nuw nsw i32 %25 to i16
  %26 = trunc nuw nsw i32 %25 to i16
  %.rhs.trunc41 = mul nuw nsw i16 %26, 3
  %27 = load i32, ptr %21, align 4, !tbaa !33
  %28 = trunc i32 %27 to i16
  %29 = add i16 %28, 2
  %30 = getelementptr inbounds nuw i8, ptr %3, i64 12
  br label %31

31:                                               ; preds = %14, %31
  %indvars.iv = phi i64 [ 0, %14 ], [ %indvars.iv.next, %31 ]
  %.lhs.trunc = trunc i64 %indvars.iv to i16
  %32 = urem i16 %.lhs.trunc, 3
  %narrow = mul nuw nsw i16 %32, 21
  %33 = udiv i16 %.lhs.trunc, 3
  %narrow46 = mul nuw nsw i16 %33, 9
  %narrow47 = add nuw nsw i16 %narrow, %narrow46
  %34 = udiv i16 %.lhs.trunc, %.rhs.trunc
  %.lhs.trunc38 = trunc i16 %34 to i8
  %35 = urem i8 %.lhs.trunc38, 3
  %.zext39 = zext nneg i8 %35 to i16
  %.lhs.trunc40 = add nuw i16 %narrow47, %.zext39
  %36 = urem i16 %.lhs.trunc40, %.rhs.trunc41
  %narrow48 = mul nuw nsw i16 %36, 80
  %37 = udiv i16 %.lhs.trunc, %.rhs.trunc41
  %38 = mul i16 %29, %37
  %39 = or disjoint i16 %narrow48, 8
  %40 = add i16 %39, %38
  %41 = getelementptr inbounds nuw [2000 x i16], ptr %30, i64 0, i64 %indvars.iv
  store i16 %40, ptr %41, align 2, !tbaa !38
  %indvars.iv.next = add nuw nsw i64 %indvars.iv, 1
  %exitcond.not = icmp eq i64 %indvars.iv.next, 2000
  br i1 %exitcond.not, label %.loopexit, label %31, !llvm.loop !40

.loopexit:                                        ; preds = %31, %8
  %.0 = phi i32 [ -22, %8 ], [ 0, %31 ]
  ret i32 %.0
}